; Function Attrs: mustprogress uwtable
define void @_ZNK10open_spiel13cliff_walking17CliffWalkingState22InformationStateTensorEiN4absl7debian24SpanIfEE(ptr noundef nonnull readonly align 8 captures(none) dereferenceable(84) %0, i32 noundef %1, ptr writeonly captures(none) %2, i64 %3) unnamed_addr #3 align 2 personality ptr @__gxx_personality_v0 {
  %5 = alloca i32, align 4
  %6 = alloca i32, align 4
  %7 = alloca %"class.std::__cxx11::basic_string", align 8
  %8 = alloca i32, align 4
  %9 = alloca i32, align 4
  %10 = alloca i32, align 4
  %11 = alloca %"class.std::__cxx11::basic_string", align 8
  %12 = alloca i32, align 4
  %13 = alloca i64, align 8
  %14 = alloca i32, align 4
  %15 = alloca %"class.std::__cxx11::basic_string", align 8
  %16 = alloca i32, align 4
  store i32 %1, ptr %5, align 4
  store i32 0, ptr %6, align 4
  %17 = icmp sgt i32 %1, -1
  br i1 %17, label %22, label %18

18:                                               ; preds = %4
  store i32 154, ptr %8, align 4
  call void @_ZN10open_spiel8internal11SpielStrCatIJRA146_KcRA2_S2_iS6_RA12_S2_RA8_S2_RA4_S2_RiRA7_S2_SD_EEENSt7__cxx1112basic_stringIcSt11char_traitsIcESaIcEEEDpOT_(ptr dead_on_unwind nonnull writable sret(%"class.std::__cxx11::basic_string") align 8 %7, ptr noundef nonnull align 1 dereferenceable(146) @.str.8, ptr noundef nonnull align 1 dereferenceable(2) @.str.9, ptr noundef nonnull align 4 dereferenceable(4) %8, ptr noundef nonnull align 1 dereferenceable(2) @.str.10, ptr noundef nonnull align 1 dereferenceable(12) @.str.20, ptr noundef nonnull align 1 dereferenceable(8) @.str.12, ptr noundef nonnull align 1 dereferenceable(4) @.str.13, ptr noundef nonnull align 4 dereferenceable(4) %5, ptr noundef nonnull align 1 dereferenceable(7) @.str.14, ptr noundef nonnull align 4 dereferenceable(4) %6)
  invoke void @_ZN10open_spiel15SpielFatalErrorERKNSt7__cxx1112basic_stringIcSt11char_traitsIcESaIcEEE(ptr noundef nonnull align 8 dereferenceable(32) %7) #23
          to label %19 unwind label %20

19:                                               ; preds = %18
  unreachable

20:                                               ; preds = %18
  %21 = landingpad { ptr, i32 }
          cleanup
  br label %59

22:                                               ; preds = %4
  store i32 %1, ptr %9, align 4
  %23 = getelementptr inbounds nuw i8, ptr %0, i64 28
  %24 = load i32, ptr %23, align 4
  store i32 %24, ptr %10, align 4
  %25 = icmp slt i32 %1, %24
  br i1 %25, label %30, label %26

26:                                               ; preds = %22
  store i32 155, ptr %12, align 4
  call void @_ZN10open_spiel8internal11SpielStrCatIJRA146_KcRA2_S2_iS6_RA22_S2_RA8_S2_RA4_S2_RiRA18_S2_SD_EEENSt7__cxx1112basic_stringIcSt11char_traitsIcESaIcEEEDpOT_(ptr dead_on_unwind nonnull writable sret(%"class.std::__cxx11::basic_string") align 8 %11, ptr noundef nonnull align 1 dereferenceable(146) @.str.8, ptr noundef nonnull align 1 dereferenceable(2) @.str.9, ptr noundef nonnull align 4 dereferenceable(4) %12, ptr noundef nonnull align 1 dereferenceable(2) @.str.10, ptr noundef nonnull align 1 dereferenceable(22) @.str.21, ptr noundef nonnull align 1 dereferenceable(8) @.str.12, ptr noundef nonnull align 1 dereferenceable(4) @.str.13, ptr noundef nonnull align 4 dereferenceable(4) %9, ptr noundef nonnull align 1 dereferenceable(18) @.str.22, ptr noundef nonnull align 4 dereferenceable(4) %10)
  invoke void @_ZN10open_spiel15SpielFatalErrorERKNSt7__cxx1112basic_stringIcSt11char_traitsIcESaIcEEE(ptr noundef nonnull align 8 dereferenceable(32) %11) #23
          to label %27 unwind label %28

27:                                               ; preds = %26
  unreachable

28:                                               ; preds = %26
  %29 = landingpad { ptr, i32 }
          cleanup
  br label %59

30:                                               ; preds = %22
  store i64 %3, ptr %13, align 8
  %31 = getelementptr inbounds nuw i8, ptr %0, i64 68
  %32 = load i32, ptr %31, align 4
  %33 = shl nsw i32 %32, 2
  store i32 %33, ptr %14, align 4
  %34 = sext i32 %33 to i64
  %35 = icmp eq i64 %3, %34
  br i1 %35, label %.preheader, label %40

.preheader:                                       ; preds = %30
  %36 = getelementptr inbounds nuw i8, ptr %0, i64 32
  %37 = getelementptr inbounds nuw i8, ptr %0, i64 40
  %38 = load ptr, ptr %37, align 8
  %39 = load ptr, ptr %36, align 8
  %.not = icmp eq ptr %38, %39
  br i1 %.not, label %._crit_edge, label %.lr.ph

40:                                               ; preds = %30
  store i32 156, ptr %16, align 4
  call void @_ZN10open_spiel8internal11SpielStrCatIJRA146_KcRA2_S2_iS6_RA40_S2_RA15_S2_RA4_S2_RmRA28_S2_RiEEENSt7__cxx1112basic_stringIcSt11char_traitsIcESaIcEEEDpOT_(ptr dead_on_unwind nonnull writable sret(%"class.std::__cxx11::basic_string") align 8 %15, ptr noundef nonnull align 1 dereferenceable(146) @.str.8, ptr noundef nonnull align 1 dereferenceable(2) @.str.9, ptr noundef nonnull align 4 dereferenceable(4) %16, ptr noundef nonnull align 1 dereferenceable(2) @.str.10, ptr noundef nonnull align 1 dereferenceable(40) @.str.26, ptr noundef nonnull align 1 dereferenceable(15) @.str.24, ptr noundef nonnull align 1 dereferenceable(4) @.str.13, ptr noundef nonnull align 8 dereferenceable(8) %13, ptr noundef nonnull align 1 dereferenceable(28) @.str.27, ptr noundef nonnull align 4 dereferenceable(4) %14)
  invoke void @_ZN10open_spiel15SpielFatalErrorERKNSt7__cxx1112basic_stringIcSt11char_traitsIcESaIcEEE(ptr noundef nonnull align 8 dereferenceable(32) %15) #23
          to label %41 unwind label %42

41:                                               ; preds = %40
  unreachable

42:                                               ; preds = %40
  %43 = landingpad { ptr, i32 }
          cleanup
  br label %59

.lr.ph:                                           ; preds = %.preheader, %_ZNK4absl7debian24SpanIfEixEm.exit
  %indvars.iv = phi i64 [ %indvars.iv.next, %_ZNK4absl7debian24SpanIfEixEm.exit ], [ 0, %.preheader ]
  %44 = phi ptr [ %53, %_ZNK4absl7debian24SpanIfEixEm.exit ], [ %39, %.preheader ]
  %45 = shl nsw i64 %indvars.iv, 2
  %46 = getelementptr inbounds nuw %"struct.open_spiel::State::PlayerAction", ptr %44, i64 %indvars.iv, i32 1
  %47 = load i64, ptr %46, align 8
  %48 = add nsw i64 %47, %45
  %49 = icmp ult i64 %48, %3
  br i1 %49, label %_ZNK4absl7debian24SpanIfEixEm.exit, label %50

50:                                               ; preds = %.lr.ph
  tail call void @llvm.trap()
  unreachable

_ZNK4absl7debian24SpanIfEixEm.exit:               ; preds = %.lr.ph
  %51 = getelementptr inbounds float, ptr %2, i64 %48
  store float 1.000000e+00, ptr %51, align 4
  %indvars.iv.next = add nuw nsw i64 %indvars.iv, 1
  %52 = load ptr, ptr %37, align 8
  %53 = load ptr, ptr %36, align 8
  %54 = ptrtoint ptr %52 to i64
  %55 = ptrtoint ptr %53 to i64
  %56 = sub i64 %54, %55
  %57 = ashr exact i64 %56, 4
  %58 = icmp ugt i64 %57, %indvars.iv.next
  br i1 %58, label %.lr.ph, label %._crit_edge, !llvm.loop !19

._crit_edge:                                      ; preds = %_ZNK4absl7debian24SpanIfEixEm.exit, %.preheader
  ret void

59:                                               ; preds = %42, %28, %20
  %.sink = phi ptr [ %15, %42 ], [ %11, %28 ], [ %7, %20 ]
  %.pn = phi { ptr, i32 } [ %43, %42 ], [ %29, %28 ], [ %21, %20 ]
  call void @_ZNSt7__cxx1112basic_stringIcSt11char_traitsIcESaIcEED1Ev(ptr noundef nonnull align 8 dereferenceable(32) %.sink) #24
  resume { ptr, i32 } %.pn
}